; Function Attrs: mustprogress uwtable
define internal fastcc noundef ptr @_ZN4absl13cord_internal12_GLOBAL__N_18MakeLeafEm(i64 noundef %size) unnamed_addr #3 personality ptr @__gxx_personality_v0 {
entry:
  %call = tail call fastcc noundef ptr @_ZN4absl13cord_internal12_GLOBAL__N_111MakeHexFlatEm(i64 noundef 0)
  %tag.i.i = getelementptr inbounds i8, ptr %call, i64 12
  %0 = load i8, ptr %tag.i.i, align 4
  %or.cond.i.i = icmp ugt i8 %0, 4
  br i1 %or.cond.i.i, label %_ZN4absl13cord_internal12CordRepBtree3NewEPNS0_7CordRepE.exit.i, label %if.end.i.i

if.end.i.i:                                       ; preds = %entry
  %cmp6.i.i = icmp eq i8 %0, 1
  br i1 %cmp6.i.i, label %_ZN4absl13cord_internal10IsDataEdgeEPKNS0_7CordRepE.exit.i, label %if.end.i

_ZN4absl13cord_internal10IsDataEdgeEPKNS0_7CordRepE.exit.i: ; preds = %if.end.i.i
  %child.i.i = getelementptr inbounds i8, ptr %call, i64 24
  %1 = load ptr, ptr %child.i.i, align 8
  %tag9.phi.trans.insert.i.i = getelementptr inbounds i8, ptr %1, i64 12
  %.pre.i.i = load i8, ptr %tag9.phi.trans.insert.i.i, align 4
  %2 = icmp ugt i8 %.pre.i.i, 4
  br i1 %2, label %_ZN4absl13cord_internal12CordRepBtree3NewEPNS0_7CordRepE.exit.i, label %if.end.i

_ZN4absl13cord_internal12CordRepBtree3NewEPNS0_7CordRepE.exit.i: ; preds = %_ZN4absl13cord_internal10IsDataEdgeEPKNS0_7CordRepE.exit.i, %entry
  %call.i.i = tail call noalias noundef nonnull dereferenceable(64) ptr @_Znwm(i64 noundef 64) #30
  %refcount.i.i.i.i = getelementptr inbounds i8, ptr %call.i.i, i64 8
  store i32 2, ptr %refcount.i.i.i.i, align 4
  %3 = load i64, ptr %call, align 8
  store i64 %3, ptr %call.i.i, align 8
  %tag.i7.i.i = getelementptr inbounds i8, ptr %call.i.i, i64 12
  store <4 x i8> <i8 3, i8 0, i8 0, i8 1>, ptr %tag.i7.i.i, align 4
  %edges_.i.i = getelementptr inbounds i8, ptr %call.i.i, i64 16
  store ptr %call, ptr %edges_.i.i, align 8
  br label %_ZN4absl13cord_internal12CordRepBtree6CreateEPNS0_7CordRepE.exit

if.end.i:                                         ; preds = %_ZN4absl13cord_internal10IsDataEdgeEPKNS0_7CordRepE.exit.i, %if.end.i.i
  %call2.i = tail call noundef ptr @_ZN4absl13cord_internal12CordRepBtree10CreateSlowEPNS0_7CordRepE(ptr noundef nonnull %call)
  br label %_ZN4absl13cord_internal12CordRepBtree6CreateEPNS0_7CordRepE.exit

_ZN4absl13cord_internal12CordRepBtree6CreateEPNS0_7CordRepE.exit: ; preds = %_ZN4absl13cord_internal12CordRepBtree3NewEPNS0_7CordRepE.exit.i, %if.end.i
  %retval.0.i = phi ptr [ %call.i.i, %_ZN4absl13cord_internal12CordRepBtree3NewEPNS0_7CordRepE.exit.i ], [ %call2.i, %if.end.i ]
  %cmp15 = icmp ugt i64 %size, 1
  br i1 %cmp15, label %for.body, label %for.end

for.body:                                         ; preds = %_ZN4absl13cord_internal12CordRepBtree6CreateEPNS0_7CordRepE.exit, %_ZN4absl13cord_internal12CordRepBtree6AppendEPS1_PNS0_7CordRepE.exit
  %i.017 = phi i64 [ %inc, %_ZN4absl13cord_internal12CordRepBtree6AppendEPS1_PNS0_7CordRepE.exit ], [ 1, %_ZN4absl13cord_internal12CordRepBtree6CreateEPNS0_7CordRepE.exit ]
  %leaf.016 = phi ptr [ %retval.0.i10, %_ZN4absl13cord_internal12CordRepBtree6AppendEPS1_PNS0_7CordRepE.exit ], [ %retval.0.i, %_ZN4absl13cord_internal12CordRepBtree6CreateEPNS0_7CordRepE.exit ]
  %call2 = tail call fastcc noundef ptr @_ZN4absl13cord_internal12_GLOBAL__N_111MakeHexFlatEm(i64 noundef %i.017)
  %tag.i.i4 = getelementptr inbounds i8, ptr %call2, i64 12
  %4 = load i8, ptr %tag.i.i4, align 4
  %or.cond.i.i5 = icmp ugt i8 %4, 4
  br i1 %or.cond.i.i5, label %if.then.i, label %if.end.i.i6

if.end.i.i6:                                      ; preds = %for.body
  %cmp6.i.i7 = icmp eq i8 %4, 1
  br i1 %cmp6.i.i7, label %_ZN4absl13cord_internal10IsDataEdgeEPKNS0_7CordRepE.exit.i11, label %if.end.i8

_ZN4absl13cord_internal10IsDataEdgeEPKNS0_7CordRepE.exit.i11: ; preds = %if.end.i.i6
  %child.i.i12 = getelementptr inbounds i8, ptr %call2, i64 24
  %5 = load ptr, ptr %child.i.i12, align 8
  %tag9.phi.trans.insert.i.i13 = getelementptr inbounds i8, ptr %5, i64 12
  %.pre.i.i14 = load i8, ptr %tag9.phi.trans.insert.i.i13, align 4
  %6 = icmp ugt i8 %.pre.i.i14, 4
  br i1 %6, label %if.then.i, label %if.end.i8

if.then.i:                                        ; preds = %_ZN4absl13cord_internal10IsDataEdgeEPKNS0_7CordRepE.exit.i11, %for.body
  %call1.i = tail call noundef ptr @_ZN4absl13cord_internal12CordRepBtree10AddCordRepILNS1_8EdgeTypeE1EEEPS1_S4_PNS0_7CordRepE(ptr noundef %leaf.016, ptr noundef nonnull %call2)
  br label %_ZN4absl13cord_internal12CordRepBtree6AppendEPS1_PNS0_7CordRepE.exit

if.end.i8:                                        ; preds = %_ZN4absl13cord_internal10IsDataEdgeEPKNS0_7CordRepE.exit.i11, %if.end.i.i6
  %call2.i9 = tail call noundef ptr @_ZN4absl13cord_internal12CordRepBtree10AppendSlowEPS1_PNS0_7CordRepE(ptr noundef %leaf.016, ptr noundef nonnull %call2)
  br label %_ZN4absl13cord_internal12CordRepBtree6AppendEPS1_PNS0_7CordRepE.exit

_ZN4absl13cord_internal12CordRepBtree6AppendEPS1_PNS0_7CordRepE.exit: ; preds = %if.then.i, %if.end.i8
  %retval.0.i10 = phi ptr [ %call1.i, %if.then.i ], [ %call2.i9, %if.end.i8 ]
  %inc = add nuw i64 %i.017, 1
  %exitcond.not = icmp eq i64 %inc, %size
  br i1 %exitcond.not, label %for.end, label %for.body, !llvm.loop !410

for.end:                                          ; preds = %_ZN4absl13cord_internal12CordRepBtree6AppendEPS1_PNS0_7CordRepE.exit, %_ZN4absl13cord_internal12CordRepBtree6CreateEPNS0_7CordRepE.exit
  %leaf.0.lcssa = phi ptr [ %retval.0.i, %_ZN4absl13cord_internal12CordRepBtree6CreateEPNS0_7CordRepE.exit ], [ %retval.0.i10, %_ZN4absl13cord_internal12CordRepBtree6AppendEPS1_PNS0_7CordRepE.exit ]
  ret ptr %leaf.0.lcssa
}